; Function Attrs: nounwind uwtable
define void @b2Body_ApplyLinearImpulseToCenter(i64 %0, <2 x float> %1, i1 noundef zeroext %2) local_unnamed_addr #8 {
  %.sroa.2.0.extract.shift = lshr i64 %0, 32
  %4 = trunc nuw i64 %.sroa.2.0.extract.shift to i32
  %5 = and i32 %4, 65535
  %6 = tail call ptr @b2GetWorld(i32 noundef %5) #10
  %7 = getelementptr inbounds nuw i8, ptr %6, i64 1032
  %.val.i = load ptr, ptr %7, align 8, !tbaa !10
  %8 = shl i64 %0, 32
  %sext.i = add i64 %8, -4294967296
  %9 = ashr exact i64 %sext.i, 25
  %10 = getelementptr inbounds i8, ptr %.val.i, i64 %9
  br i1 %2, label %11, label %15

11:                                               ; preds = %3
  %12 = getelementptr inbounds nuw i8, ptr %10, i64 40
  %13 = load i32, ptr %12, align 8, !tbaa !19
  %14 = icmp sgt i32 %13, 2
  br i1 %14, label %b2WakeBody.exit, label %15

b2WakeBody.exit:                                  ; preds = %11
  tail call void @b2WakeSolverSet(ptr noundef nonnull %6, i32 noundef %13) #10
  br label %15

15:                                               ; preds = %b2WakeBody.exit, %11, %3
  %16 = getelementptr inbounds nuw i8, ptr %10, i64 40
  %17 = load i32, ptr %16, align 8, !tbaa !19
  %18 = icmp eq i32 %17, 2
  br i1 %18, label %19, label %34

19:                                               ; preds = %15
  %20 = getelementptr inbounds nuw i8, ptr %10, i64 44
  %21 = load i32, ptr %20, align 4, !tbaa !27
  %22 = getelementptr inbounds nuw i8, ptr %6, i64 1072
  %.val = load ptr, ptr %22, align 8, !tbaa !24
  %23 = getelementptr inbounds nuw i8, ptr %.val, i64 176
  %24 = getelementptr inbounds nuw i8, ptr %.val, i64 192
  %.val17 = load ptr, ptr %24, align 8, !tbaa !18
  %25 = sext i32 %21 to i64
  %26 = getelementptr inbounds %struct.b2BodyState, ptr %.val17, i64 %25
  %.val16 = load ptr, ptr %23, align 8, !tbaa !14
  %27 = getelementptr inbounds %struct.b2BodySim, ptr %.val16, i64 %25, i32 7
  %28 = load float, ptr %27, align 4, !tbaa !192
  %29 = load <2 x float>, ptr %26, align 4
  %.sroa.02.0.vec.extract.i = extractelement <2 x float> %29, i64 0
  %.sroa.0.0.vec.extract.i = extractelement <2 x float> %1, i64 0
  %30 = fmul float %.sroa.0.0.vec.extract.i, %28
  %31 = fadd float %30, %.sroa.02.0.vec.extract.i
  %.sroa.03.0.vec.insert.i = insertelement <2 x float> poison, float %31, i64 0
  %.sroa.02.4.vec.extract.i = extractelement <2 x float> %29, i64 1
  %.sroa.0.4.vec.extract.i = extractelement <2 x float> %1, i64 1
  %32 = fmul float %.sroa.0.4.vec.extract.i, %28
  %33 = fadd float %32, %.sroa.02.4.vec.extract.i
  %.sroa.03.4.vec.insert.i = insertelement <2 x float> %.sroa.03.0.vec.insert.i, float %33, i64 1
  store <2 x float> %.sroa.03.4.vec.insert.i, ptr %26, align 4
  br label %34

34:                                               ; preds = %19, %15
  ret void
}